
build/app.elf:     file format elf32-avr

Sections:
Idx Name          Size      VMA       LMA       File off  Algn
  0 .text         00000638  00000000  00000000  00000094  2**1
                  CONTENTS, ALLOC, LOAD, READONLY, CODE
  1 .data         00000000  00800060  00000638  000006cc  2**0
                  CONTENTS, ALLOC, LOAD, DATA
  2 .bss          00000009  00800060  00800060  000006cc  2**0
                  ALLOC
  3 .comment      00000011  00000000  00000000  000006cc  2**0
                  CONTENTS, READONLY
  4 .note.gnu.avr.deviceinfo 0000003c  00000000  00000000  000006e0  2**2
                  CONTENTS, READONLY
  5 .debug_info   000004e6  00000000  00000000  0000071c  2**0
                  CONTENTS, READONLY, DEBUGGING
  6 .debug_abbrev 000004a3  00000000  00000000  00000c02  2**0
                  CONTENTS, READONLY, DEBUGGING
  7 .debug_line   0000001a  00000000  00000000  000010a5  2**0
                  CONTENTS, READONLY, DEBUGGING
  8 .debug_str    00000196  00000000  00000000  000010bf  2**0
                  CONTENTS, READONLY, DEBUGGING

Disassembly of section .text:

00000000 <__vectors>:
   0:	0c 94 2a 00 	jmp	0x54	; 0x54 <__ctors_end>
   4:	0c 94 3c 00 	jmp	0x78	; 0x78 <__bad_interrupt>
   8:	0c 94 3c 00 	jmp	0x78	; 0x78 <__bad_interrupt>
   c:	0c 94 3c 00 	jmp	0x78	; 0x78 <__bad_interrupt>
  10:	0c 94 3c 00 	jmp	0x78	; 0x78 <__bad_interrupt>
  14:	0c 94 3c 00 	jmp	0x78	; 0x78 <__bad_interrupt>
  18:	0c 94 3c 00 	jmp	0x78	; 0x78 <__bad_interrupt>
  1c:	0c 94 3c 00 	jmp	0x78	; 0x78 <__bad_interrupt>
  20:	0c 94 3c 00 	jmp	0x78	; 0x78 <__bad_interrupt>
  24:	0c 94 3c 00 	jmp	0x78	; 0x78 <__bad_interrupt>
  28:	0c 94 7b 01 	jmp	0x2f6	; 0x2f6 <__vector_10>
  2c:	0c 94 23 01 	jmp	0x246	; 0x246 <__vector_11>
  30:	0c 94 3c 00 	jmp	0x78	; 0x78 <__bad_interrupt>
  34:	0c 94 3c 00 	jmp	0x78	; 0x78 <__bad_interrupt>
  38:	0c 94 3c 00 	jmp	0x78	; 0x78 <__bad_interrupt>
  3c:	0c 94 3c 00 	jmp	0x78	; 0x78 <__bad_interrupt>
  40:	0c 94 3c 00 	jmp	0x78	; 0x78 <__bad_interrupt>
  44:	0c 94 3c 00 	jmp	0x78	; 0x78 <__bad_interrupt>
  48:	0c 94 3c 00 	jmp	0x78	; 0x78 <__bad_interrupt>
  4c:	0c 94 3c 00 	jmp	0x78	; 0x78 <__bad_interrupt>
  50:	0c 94 3c 00 	jmp	0x78	; 0x78 <__bad_interrupt>

00000054 <__ctors_end>:
  54:	11 24       	eor	r1, r1
  56:	1f be       	out	0x3f, r1	; 63
  58:	cf e5       	ldi	r28, 0x5F	; 95
  5a:	d8 e0       	ldi	r29, 0x08	; 8
  5c:	de bf       	out	0x3e, r29	; 62
  5e:	cd bf       	out	0x3d, r28	; 61

00000060 <__do_clear_bss>:
  60:	20 e0       	ldi	r18, 0x00	; 0
  62:	a0 e6       	ldi	r26, 0x60	; 96
  64:	b0 e0       	ldi	r27, 0x00	; 0
  66:	01 c0       	rjmp	.+2      	; 0x6a <.do_clear_bss_start>

00000068 <.do_clear_bss_loop>:
  68:	1d 92       	st	X+, r1

0000006a <.do_clear_bss_start>:
  6a:	a9 36       	cpi	r26, 0x69	; 105
  6c:	b2 07       	cpc	r27, r18
  6e:	e1 f7       	brne	.-8      	; 0x68 <.do_clear_bss_loop>
  70:	0e 94 f6 02 	call	0x5ec	; 0x5ec <main>
  74:	0c 94 1a 03 	jmp	0x634	; 0x634 <_exit>

00000078 <__bad_interrupt>:
  78:	0c 94 00 00 	jmp	0	; 0x0 <__vectors>

0000007c <aLed_Action1>:
  7c:	80 91 60 00 	lds	r24, 0x0060	; 0x800060 <__DATA_REGION_ORIGIN__>
  80:	81 11       	cpse	r24, r1
  82:	07 c0       	rjmp	.+14     	; 0x92 <aLed_Action1+0x16>
  84:	81 e0       	ldi	r24, 0x01	; 1
  86:	80 93 60 00 	sts	0x0060, r24	; 0x800060 <__DATA_REGION_ORIGIN__>
  8a:	41 e0       	ldi	r20, 0x01	; 1
  8c:	65 e0       	ldi	r22, 0x05	; 5
  8e:	0c 94 34 02 	jmp	0x468	; 0x468 <mDIO_WriteValueForPin>
  92:	10 92 60 00 	sts	0x0060, r1	; 0x800060 <__DATA_REGION_ORIGIN__>
  96:	40 e0       	ldi	r20, 0x00	; 0
  98:	65 e0       	ldi	r22, 0x05	; 5
  9a:	81 e0       	ldi	r24, 0x01	; 1
  9c:	f8 cf       	rjmp	.-16     	; 0x8e <aLed_Action1+0x12>

0000009e <hLCD_SendCommand>:
  9e:	cf 93       	push	r28
  a0:	c8 2f       	mov	r28, r24
  a2:	40 e0       	ldi	r20, 0x00	; 0
  a4:	60 e0       	ldi	r22, 0x00	; 0
  a6:	84 e0       	ldi	r24, 0x04	; 4
  a8:	0e 94 34 02 	call	0x468	; 0x468 <mDIO_WriteValueForPin>
  ac:	40 e0       	ldi	r20, 0x00	; 0
  ae:	61 e0       	ldi	r22, 0x01	; 1
  b0:	84 e0       	ldi	r24, 0x04	; 4
  b2:	0e 94 34 02 	call	0x468	; 0x468 <mDIO_WriteValueForPin>
  b6:	41 e0       	ldi	r20, 0x01	; 1
  b8:	62 e0       	ldi	r22, 0x02	; 2
  ba:	84 e0       	ldi	r24, 0x04	; 4
  bc:	0e 94 34 02 	call	0x468	; 0x468 <mDIO_WriteValueForPin>
  c0:	6c 2f       	mov	r22, r28
  c2:	82 e0       	ldi	r24, 0x02	; 2
  c4:	0e 94 d0 02 	call	0x5a0	; 0x5a0 <mDIO_WriteValueForGroup>
  c8:	40 e0       	ldi	r20, 0x00	; 0
  ca:	62 e0       	ldi	r22, 0x02	; 2
  cc:	84 e0       	ldi	r24, 0x04	; 4
  ce:	cf 91       	pop	r28
  d0:	0c 94 34 02 	jmp	0x468	; 0x468 <mDIO_WriteValueForPin>

000000d4 <hLCD_Init>:
  d4:	41 e0       	ldi	r20, 0x01	; 1
  d6:	60 e0       	ldi	r22, 0x00	; 0
  d8:	84 e0       	ldi	r24, 0x04	; 4
  da:	0e 94 c8 01 	call	0x390	; 0x390 <mDIO_ChangeDirectionForPin>
  de:	41 e0       	ldi	r20, 0x01	; 1
  e0:	61 e0       	ldi	r22, 0x01	; 1
  e2:	84 e0       	ldi	r24, 0x04	; 4
  e4:	0e 94 c8 01 	call	0x390	; 0x390 <mDIO_ChangeDirectionForPin>
  e8:	41 e0       	ldi	r20, 0x01	; 1
  ea:	62 e0       	ldi	r22, 0x02	; 2
  ec:	84 e0       	ldi	r24, 0x04	; 4
  ee:	0e 94 c8 01 	call	0x390	; 0x390 <mDIO_ChangeDirectionForPin>
  f2:	6f ef       	ldi	r22, 0xFF	; 255
  f4:	82 e0       	ldi	r24, 0x02	; 2
  f6:	0e 94 bd 02 	call	0x57a	; 0x57a <mDIO_ChangeDirectionforGroup>
  fa:	2f eb       	ldi	r18, 0xBF	; 191
  fc:	8a ed       	ldi	r24, 0xDA	; 218
  fe:	90 e0       	ldi	r25, 0x00	; 0
 100:	21 50       	subi	r18, 0x01	; 1
 102:	80 40       	sbci	r24, 0x00	; 0
 104:	90 40       	sbci	r25, 0x00	; 0
 106:	e1 f7       	brne	.-8      	; 0x100 <hLCD_Init+0x2c>
 108:	00 c0       	rjmp	.+0      	; 0x10a <hLCD_Init+0x36>
 10a:	00 00       	nop
 10c:	88 e3       	ldi	r24, 0x38	; 56
 10e:	0e 94 4f 00 	call	0x9e	; 0x9e <hLCD_SendCommand>
 112:	8f ec       	ldi	r24, 0xCF	; 207
 114:	97 e0       	ldi	r25, 0x07	; 7
 116:	01 97       	sbiw	r24, 0x01	; 1
 118:	f1 f7       	brne	.-4      	; 0x116 <hLCD_Init+0x42>
 11a:	00 c0       	rjmp	.+0      	; 0x11c <hLCD_Init+0x48>
 11c:	00 00       	nop
 11e:	8e e0       	ldi	r24, 0x0E	; 14
 120:	0e 94 4f 00 	call	0x9e	; 0x9e <hLCD_SendCommand>
 124:	8f ec       	ldi	r24, 0xCF	; 207
 126:	97 e0       	ldi	r25, 0x07	; 7
 128:	01 97       	sbiw	r24, 0x01	; 1
 12a:	f1 f7       	brne	.-4      	; 0x128 <hLCD_Init+0x54>
 12c:	00 c0       	rjmp	.+0      	; 0x12e <hLCD_Init+0x5a>
 12e:	00 00       	nop
 130:	81 e0       	ldi	r24, 0x01	; 1
 132:	0e 94 4f 00 	call	0x9e	; 0x9e <hLCD_SendCommand>
 136:	8f e9       	ldi	r24, 0x9F	; 159
 138:	9f e0       	ldi	r25, 0x0F	; 15
 13a:	01 97       	sbiw	r24, 0x01	; 1
 13c:	f1 f7       	brne	.-4      	; 0x13a <hLCD_Init+0x66>
 13e:	00 c0       	rjmp	.+0      	; 0x140 <hLCD_Init+0x6c>
 140:	00 00       	nop
 142:	86 e0       	ldi	r24, 0x06	; 6
 144:	0e 94 4f 00 	call	0x9e	; 0x9e <hLCD_SendCommand>
 148:	8f ec       	ldi	r24, 0xCF	; 207
 14a:	97 e0       	ldi	r25, 0x07	; 7
 14c:	01 97       	sbiw	r24, 0x01	; 1
 14e:	f1 f7       	brne	.-4      	; 0x14c <hLCD_Init+0x78>
 150:	00 c0       	rjmp	.+0      	; 0x152 <hLCD_Init+0x7e>
 152:	00 00       	nop
 154:	08 95       	ret

00000156 <hLCD_SendChar>:
 156:	cf 93       	push	r28
 158:	c8 2f       	mov	r28, r24
 15a:	41 e0       	ldi	r20, 0x01	; 1
 15c:	60 e0       	ldi	r22, 0x00	; 0
 15e:	84 e0       	ldi	r24, 0x04	; 4
 160:	0e 94 34 02 	call	0x468	; 0x468 <mDIO_WriteValueForPin>
 164:	40 e0       	ldi	r20, 0x00	; 0
 166:	61 e0       	ldi	r22, 0x01	; 1
 168:	84 e0       	ldi	r24, 0x04	; 4
 16a:	0e 94 34 02 	call	0x468	; 0x468 <mDIO_WriteValueForPin>
 16e:	41 e0       	ldi	r20, 0x01	; 1
 170:	62 e0       	ldi	r22, 0x02	; 2
 172:	84 e0       	ldi	r24, 0x04	; 4
 174:	0e 94 34 02 	call	0x468	; 0x468 <mDIO_WriteValueForPin>
 178:	6c 2f       	mov	r22, r28
 17a:	82 e0       	ldi	r24, 0x02	; 2
 17c:	0e 94 d0 02 	call	0x5a0	; 0x5a0 <mDIO_WriteValueForGroup>
 180:	40 e0       	ldi	r20, 0x00	; 0
 182:	62 e0       	ldi	r22, 0x02	; 2
 184:	84 e0       	ldi	r24, 0x04	; 4
 186:	cf 91       	pop	r28
 188:	0c 94 34 02 	jmp	0x468	; 0x468 <mDIO_WriteValueForPin>

0000018c <hLCD_SendString>:
 18c:	1f 93       	push	r17
 18e:	cf 93       	push	r28
 190:	df 93       	push	r29
 192:	ec 01       	movw	r28, r24
 194:	10 e0       	ldi	r17, 0x00	; 0
 196:	89 2b       	or	r24, r25
 198:	39 f4       	brne	.+14     	; 0x1a8 <hLCD_SendString+0x1c>
 19a:	df 91       	pop	r29
 19c:	cf 91       	pop	r28
 19e:	1f 91       	pop	r17
 1a0:	08 95       	ret
 1a2:	0e 94 ab 00 	call	0x156	; 0x156 <hLCD_SendChar>
 1a6:	1f 5f       	subi	r17, 0xFF	; 255
 1a8:	fe 01       	movw	r30, r28
 1aa:	e1 0f       	add	r30, r17
 1ac:	f1 1d       	adc	r31, r1
 1ae:	80 81       	ld	r24, Z
 1b0:	81 11       	cpse	r24, r1
 1b2:	f7 cf       	rjmp	.-18     	; 0x1a2 <hLCD_SendString+0x16>
 1b4:	f2 cf       	rjmp	.-28     	; 0x19a <hLCD_SendString+0xe>

000001b6 <hLCD_MoveCursor>:
 1b6:	81 30       	cpi	r24, 0x01	; 1
 1b8:	21 f0       	breq	.+8      	; 0x1c2 <hLCD_MoveCursor+0xc>
 1ba:	60 5c       	subi	r22, 0xC0	; 192
 1bc:	82 30       	cpi	r24, 0x02	; 2
 1be:	09 f0       	breq	.+2      	; 0x1c2 <hLCD_MoveCursor+0xc>
 1c0:	60 e0       	ldi	r22, 0x00	; 0
 1c2:	80 e8       	ldi	r24, 0x80	; 128
 1c4:	86 0f       	add	r24, r22
 1c6:	0e 94 4f 00 	call	0x9e	; 0x9e <hLCD_SendCommand>
 1ca:	8f ec       	ldi	r24, 0xCF	; 207
 1cc:	97 e0       	ldi	r25, 0x07	; 7
 1ce:	01 97       	sbiw	r24, 0x01	; 1
 1d0:	f1 f7       	brne	.-4      	; 0x1ce <hLCD_MoveCursor+0x18>
 1d2:	00 c0       	rjmp	.+0      	; 0x1d4 <hLCD_MoveCursor+0x1e>
 1d4:	00 00       	nop
 1d6:	08 95       	ret

000001d8 <mEXTI0_Enable>:
 1d8:	08 95       	ret

000001da <mEXTI1_Enable>:
 1da:	08 95       	ret

000001dc <mEXTI2_Enable>:
 1dc:	82 30       	cpi	r24, 0x02	; 2
 1de:	39 f4       	brne	.+14     	; 0x1ee <mEXTI2_Enable+0x12>
 1e0:	84 b7       	in	r24, 0x34	; 52
 1e2:	8f 7b       	andi	r24, 0xBF	; 191
 1e4:	84 bf       	out	0x34, r24	; 52
 1e6:	8b b7       	in	r24, 0x3b	; 59
 1e8:	80 62       	ori	r24, 0x20	; 32
 1ea:	8b bf       	out	0x3b, r24	; 59
 1ec:	08 95       	ret
 1ee:	83 30       	cpi	r24, 0x03	; 3
 1f0:	d1 f7       	brne	.-12     	; 0x1e6 <mEXTI2_Enable+0xa>
 1f2:	84 b7       	in	r24, 0x34	; 52
 1f4:	80 64       	ori	r24, 0x40	; 64
 1f6:	f6 cf       	rjmp	.-20     	; 0x1e4 <mEXTI2_Enable+0x8>

000001f8 <mADC_Init>:
 1f8:	33 98       	cbi	0x06, 3	; 6
 1fa:	35 98       	cbi	0x06, 5	; 6
 1fc:	3f 98       	cbi	0x07, 7	; 7
 1fe:	3e 9a       	sbi	0x07, 6	; 7
 200:	3d 98       	cbi	0x07, 5	; 7
 202:	30 9a       	sbi	0x06, 0	; 6
 204:	31 9a       	sbi	0x06, 1	; 6
 206:	32 98       	cbi	0x06, 2	; 6
 208:	37 9a       	sbi	0x06, 7	; 6
 20a:	08 95       	ret

0000020c <mADC_SignleEndedConversion>:
 20c:	97 b1       	in	r25, 0x07	; 7
 20e:	87 70       	andi	r24, 0x07	; 7
 210:	89 2b       	or	r24, r25
 212:	87 b9       	out	0x07, r24	; 7
 214:	36 9a       	sbi	0x06, 6	; 6
 216:	34 9b       	sbis	0x06, 4	; 6
 218:	fe cf       	rjmp	.-4      	; 0x216 <mADC_SignleEndedConversion+0xa>
 21a:	34 9a       	sbi	0x06, 4	; 6
 21c:	84 b1       	in	r24, 0x04	; 4
 21e:	95 b1       	in	r25, 0x05	; 5
 220:	08 95       	ret

00000222 <mTimer0_InitNormalMode>:
 222:	83 b7       	in	r24, 0x33	; 51
 224:	8f 7b       	andi	r24, 0xBF	; 191
 226:	83 bf       	out	0x33, r24	; 51
 228:	83 b7       	in	r24, 0x33	; 51
 22a:	87 7f       	andi	r24, 0xF7	; 247
 22c:	83 bf       	out	0x33, r24	; 51
 22e:	80 ec       	ldi	r24, 0xC0	; 192
 230:	82 bf       	out	0x32, r24	; 50
 232:	89 b7       	in	r24, 0x39	; 57
 234:	81 60       	ori	r24, 0x01	; 1
 236:	89 bf       	out	0x39, r24	; 57
 238:	83 b7       	in	r24, 0x33	; 51
 23a:	88 7f       	andi	r24, 0xF8	; 248
 23c:	83 bf       	out	0x33, r24	; 51
 23e:	83 b7       	in	r24, 0x33	; 51
 240:	81 60       	ori	r24, 0x01	; 1
 242:	83 bf       	out	0x33, r24	; 51
 244:	08 95       	ret

00000246 <__vector_11>:
 246:	1f 92       	push	r1
 248:	0f 92       	push	r0
 24a:	0f b6       	in	r0, 0x3f	; 63
 24c:	0f 92       	push	r0
 24e:	11 24       	eor	r1, r1
 250:	2f 93       	push	r18
 252:	3f 93       	push	r19
 254:	4f 93       	push	r20
 256:	5f 93       	push	r21
 258:	6f 93       	push	r22
 25a:	7f 93       	push	r23
 25c:	8f 93       	push	r24
 25e:	9f 93       	push	r25
 260:	af 93       	push	r26
 262:	bf 93       	push	r27
 264:	ef 93       	push	r30
 266:	ff 93       	push	r31
 268:	80 91 65 00 	lds	r24, 0x0065	; 0x800065 <Count.1503>
 26c:	90 91 66 00 	lds	r25, 0x0066	; 0x800066 <Count.1503+0x1>
 270:	a0 91 67 00 	lds	r26, 0x0067	; 0x800067 <Count.1503+0x2>
 274:	b0 91 68 00 	lds	r27, 0x0068	; 0x800068 <Count.1503+0x3>
 278:	01 96       	adiw	r24, 0x01	; 1
 27a:	a1 1d       	adc	r26, r1
 27c:	b1 1d       	adc	r27, r1
 27e:	80 93 65 00 	sts	0x0065, r24	; 0x800065 <Count.1503>
 282:	90 93 66 00 	sts	0x0066, r25	; 0x800066 <Count.1503+0x1>
 286:	a0 93 67 00 	sts	0x0067, r26	; 0x800067 <Count.1503+0x2>
 28a:	b0 93 68 00 	sts	0x0068, r27	; 0x800068 <Count.1503+0x3>
 28e:	83 34       	cpi	r24, 0x43	; 67
 290:	9f 40       	sbci	r25, 0x0F	; 15
 292:	a1 05       	cpc	r26, r1
 294:	b1 05       	cpc	r27, r1
 296:	61 f4       	brne	.+24     	; 0x2b0 <__vector_11+0x6a>
 298:	0e 94 3e 00 	call	0x7c	; 0x7c <aLed_Action1>
 29c:	80 ec       	ldi	r24, 0xC0	; 192
 29e:	82 bf       	out	0x32, r24	; 50
 2a0:	10 92 65 00 	sts	0x0065, r1	; 0x800065 <Count.1503>
 2a4:	10 92 66 00 	sts	0x0066, r1	; 0x800066 <Count.1503+0x1>
 2a8:	10 92 67 00 	sts	0x0067, r1	; 0x800067 <Count.1503+0x2>
 2ac:	10 92 68 00 	sts	0x0068, r1	; 0x800068 <Count.1503+0x3>
 2b0:	ff 91       	pop	r31
 2b2:	ef 91       	pop	r30
 2b4:	bf 91       	pop	r27
 2b6:	af 91       	pop	r26
 2b8:	9f 91       	pop	r25
 2ba:	8f 91       	pop	r24
 2bc:	7f 91       	pop	r23
 2be:	6f 91       	pop	r22
 2c0:	5f 91       	pop	r21
 2c2:	4f 91       	pop	r20
 2c4:	3f 91       	pop	r19
 2c6:	2f 91       	pop	r18
 2c8:	0f 90       	pop	r0
 2ca:	0f be       	out	0x3f, r0	; 63
 2cc:	0f 90       	pop	r0
 2ce:	1f 90       	pop	r1
 2d0:	18 95       	reti

000002d2 <mTimer0_InitCTCMode>:
 2d2:	83 b7       	in	r24, 0x33	; 51
 2d4:	8f 7b       	andi	r24, 0xBF	; 191
 2d6:	83 bf       	out	0x33, r24	; 51
 2d8:	83 b7       	in	r24, 0x33	; 51
 2da:	88 60       	ori	r24, 0x08	; 8
 2dc:	83 bf       	out	0x33, r24	; 51
 2de:	8a ef       	ldi	r24, 0xFA	; 250
 2e0:	8c bf       	out	0x3c, r24	; 60
 2e2:	89 b7       	in	r24, 0x39	; 57
 2e4:	82 60       	ori	r24, 0x02	; 2
 2e6:	89 bf       	out	0x39, r24	; 57
 2e8:	83 b7       	in	r24, 0x33	; 51
 2ea:	88 7f       	andi	r24, 0xF8	; 248
 2ec:	83 bf       	out	0x33, r24	; 51
 2ee:	83 b7       	in	r24, 0x33	; 51
 2f0:	81 60       	ori	r24, 0x01	; 1
 2f2:	83 bf       	out	0x33, r24	; 51
 2f4:	08 95       	ret

000002f6 <__vector_10>:
 2f6:	1f 92       	push	r1
 2f8:	0f 92       	push	r0
 2fa:	0f b6       	in	r0, 0x3f	; 63
 2fc:	0f 92       	push	r0
 2fe:	11 24       	eor	r1, r1
 300:	2f 93       	push	r18
 302:	3f 93       	push	r19
 304:	4f 93       	push	r20
 306:	5f 93       	push	r21
 308:	6f 93       	push	r22
 30a:	7f 93       	push	r23
 30c:	8f 93       	push	r24
 30e:	9f 93       	push	r25
 310:	af 93       	push	r26
 312:	bf 93       	push	r27
 314:	ef 93       	push	r30
 316:	ff 93       	push	r31
 318:	80 91 61 00 	lds	r24, 0x0061	; 0x800061 <Count.1511>
 31c:	90 91 62 00 	lds	r25, 0x0062	; 0x800062 <Count.1511+0x1>
 320:	a0 91 63 00 	lds	r26, 0x0063	; 0x800063 <Count.1511+0x2>
 324:	b0 91 64 00 	lds	r27, 0x0064	; 0x800064 <Count.1511+0x3>
 328:	01 96       	adiw	r24, 0x01	; 1
 32a:	a1 1d       	adc	r26, r1
 32c:	b1 1d       	adc	r27, r1
 32e:	80 93 61 00 	sts	0x0061, r24	; 0x800061 <Count.1511>
 332:	90 93 62 00 	sts	0x0062, r25	; 0x800062 <Count.1511+0x1>
 336:	a0 93 63 00 	sts	0x0063, r26	; 0x800063 <Count.1511+0x2>
 33a:	b0 93 64 00 	sts	0x0064, r27	; 0x800064 <Count.1511+0x3>
 33e:	80 3a       	cpi	r24, 0xA0	; 160
 340:	9f 40       	sbci	r25, 0x0F	; 15
 342:	a1 05       	cpc	r26, r1
 344:	b1 05       	cpc	r27, r1
 346:	51 f4       	brne	.+20     	; 0x35c <__vector_10+0x66>
 348:	0e 94 3e 00 	call	0x7c	; 0x7c <aLed_Action1>
 34c:	10 92 61 00 	sts	0x0061, r1	; 0x800061 <Count.1511>
 350:	10 92 62 00 	sts	0x0062, r1	; 0x800062 <Count.1511+0x1>
 354:	10 92 63 00 	sts	0x0063, r1	; 0x800063 <Count.1511+0x2>
 358:	10 92 64 00 	sts	0x0064, r1	; 0x800064 <Count.1511+0x3>
 35c:	ff 91       	pop	r31
 35e:	ef 91       	pop	r30
 360:	bf 91       	pop	r27
 362:	af 91       	pop	r26
 364:	9f 91       	pop	r25
 366:	8f 91       	pop	r24
 368:	7f 91       	pop	r23
 36a:	6f 91       	pop	r22
 36c:	5f 91       	pop	r21
 36e:	4f 91       	pop	r20
 370:	3f 91       	pop	r19
 372:	2f 91       	pop	r18
 374:	0f 90       	pop	r0
 376:	0f be       	out	0x3f, r0	; 63
 378:	0f 90       	pop	r0
 37a:	1f 90       	pop	r1
 37c:	18 95       	reti

0000037e <mTimer0_InitFastPWMMode>:
 37e:	08 95       	ret

00000380 <mGIE_Enable>:
 380:	8f b7       	in	r24, 0x3f	; 63
 382:	80 68       	ori	r24, 0x80	; 128
 384:	8f bf       	out	0x3f, r24	; 63
 386:	08 95       	ret

00000388 <mGIE_Disable>:
 388:	8f b7       	in	r24, 0x3f	; 63
 38a:	8f 77       	andi	r24, 0x7F	; 127
 38c:	8f bf       	out	0x3f, r24	; 63
 38e:	08 95       	ret

00000390 <mDIO_ChangeDirectionForPin>:
 390:	68 30       	cpi	r22, 0x08	; 8
 392:	a0 f5       	brcc	.+104    	; 0x3fc <mDIO_ChangeDirectionForPin+0x6c>
 394:	41 30       	cpi	r20, 0x01	; 1
 396:	99 f5       	brne	.+102    	; 0x3fe <mDIO_ChangeDirectionForPin+0x6e>
 398:	82 30       	cpi	r24, 0x02	; 2
 39a:	99 f0       	breq	.+38     	; 0x3c2 <mDIO_ChangeDirectionForPin+0x32>
 39c:	18 f4       	brcc	.+6      	; 0x3a4 <mDIO_ChangeDirectionForPin+0x14>
 39e:	81 30       	cpi	r24, 0x01	; 1
 3a0:	31 f0       	breq	.+12     	; 0x3ae <mDIO_ChangeDirectionForPin+0x1e>
 3a2:	08 95       	ret
 3a4:	83 30       	cpi	r24, 0x03	; 3
 3a6:	b9 f0       	breq	.+46     	; 0x3d6 <mDIO_ChangeDirectionForPin+0x46>
 3a8:	84 30       	cpi	r24, 0x04	; 4
 3aa:	f9 f0       	breq	.+62     	; 0x3ea <mDIO_ChangeDirectionForPin+0x5a>
 3ac:	08 95       	ret
 3ae:	8a b3       	in	r24, 0x1a	; 26
 3b0:	21 e0       	ldi	r18, 0x01	; 1
 3b2:	30 e0       	ldi	r19, 0x00	; 0
 3b4:	01 c0       	rjmp	.+2      	; 0x3b8 <mDIO_ChangeDirectionForPin+0x28>
 3b6:	22 0f       	add	r18, r18
 3b8:	6a 95       	dec	r22
 3ba:	ea f7       	brpl	.-6      	; 0x3b6 <mDIO_ChangeDirectionForPin+0x26>
 3bc:	82 2b       	or	r24, r18
 3be:	8a bb       	out	0x1a, r24	; 26
 3c0:	08 95       	ret
 3c2:	87 b3       	in	r24, 0x17	; 23
 3c4:	21 e0       	ldi	r18, 0x01	; 1
 3c6:	30 e0       	ldi	r19, 0x00	; 0
 3c8:	01 c0       	rjmp	.+2      	; 0x3cc <mDIO_ChangeDirectionForPin+0x3c>
 3ca:	22 0f       	add	r18, r18
 3cc:	6a 95       	dec	r22
 3ce:	ea f7       	brpl	.-6      	; 0x3ca <mDIO_ChangeDirectionForPin+0x3a>
 3d0:	82 2b       	or	r24, r18
 3d2:	87 bb       	out	0x17, r24	; 23
 3d4:	08 95       	ret
 3d6:	84 b3       	in	r24, 0x14	; 20
 3d8:	21 e0       	ldi	r18, 0x01	; 1
 3da:	30 e0       	ldi	r19, 0x00	; 0
 3dc:	01 c0       	rjmp	.+2      	; 0x3e0 <mDIO_ChangeDirectionForPin+0x50>
 3de:	22 0f       	add	r18, r18
 3e0:	6a 95       	dec	r22
 3e2:	ea f7       	brpl	.-6      	; 0x3de <mDIO_ChangeDirectionForPin+0x4e>
 3e4:	82 2b       	or	r24, r18
 3e6:	84 bb       	out	0x14, r24	; 20
 3e8:	08 95       	ret
 3ea:	81 b3       	in	r24, 0x11	; 17
 3ec:	21 e0       	ldi	r18, 0x01	; 1
 3ee:	30 e0       	ldi	r19, 0x00	; 0
 3f0:	01 c0       	rjmp	.+2      	; 0x3f4 <mDIO_ChangeDirectionForPin+0x64>
 3f2:	22 0f       	add	r18, r18
 3f4:	6a 95       	dec	r22
 3f6:	ea f7       	brpl	.-6      	; 0x3f2 <mDIO_ChangeDirectionForPin+0x62>
 3f8:	82 2b       	or	r24, r18
 3fa:	81 bb       	out	0x11, r24	; 17
 3fc:	08 95       	ret
 3fe:	41 11       	cpse	r20, r1
 400:	fd cf       	rjmp	.-6      	; 0x3fc <mDIO_ChangeDirectionForPin+0x6c>
 402:	82 30       	cpi	r24, 0x02	; 2
 404:	99 f0       	breq	.+38     	; 0x42c <__EEPROM_REGION_LENGTH__+0x2c>
 406:	18 f4       	brcc	.+6      	; 0x40e <__EEPROM_REGION_LENGTH__+0xe>
 408:	81 30       	cpi	r24, 0x01	; 1
 40a:	31 f0       	breq	.+12     	; 0x418 <__EEPROM_REGION_LENGTH__+0x18>
 40c:	08 95       	ret
 40e:	83 30       	cpi	r24, 0x03	; 3
 410:	b9 f0       	breq	.+46     	; 0x440 <__EEPROM_REGION_LENGTH__+0x40>
 412:	84 30       	cpi	r24, 0x04	; 4
 414:	f9 f0       	breq	.+62     	; 0x454 <__EEPROM_REGION_LENGTH__+0x54>
 416:	08 95       	ret
 418:	2a b3       	in	r18, 0x1a	; 26
 41a:	81 e0       	ldi	r24, 0x01	; 1
 41c:	90 e0       	ldi	r25, 0x00	; 0
 41e:	01 c0       	rjmp	.+2      	; 0x422 <__EEPROM_REGION_LENGTH__+0x22>
 420:	88 0f       	add	r24, r24
 422:	6a 95       	dec	r22
 424:	ea f7       	brpl	.-6      	; 0x420 <__EEPROM_REGION_LENGTH__+0x20>
 426:	80 95       	com	r24
 428:	82 23       	and	r24, r18
 42a:	c9 cf       	rjmp	.-110    	; 0x3be <mDIO_ChangeDirectionForPin+0x2e>
 42c:	27 b3       	in	r18, 0x17	; 23
 42e:	81 e0       	ldi	r24, 0x01	; 1
 430:	90 e0       	ldi	r25, 0x00	; 0
 432:	01 c0       	rjmp	.+2      	; 0x436 <__EEPROM_REGION_LENGTH__+0x36>
 434:	88 0f       	add	r24, r24
 436:	6a 95       	dec	r22
 438:	ea f7       	brpl	.-6      	; 0x434 <__EEPROM_REGION_LENGTH__+0x34>
 43a:	80 95       	com	r24
 43c:	82 23       	and	r24, r18
 43e:	c9 cf       	rjmp	.-110    	; 0x3d2 <mDIO_ChangeDirectionForPin+0x42>
 440:	24 b3       	in	r18, 0x14	; 20
 442:	81 e0       	ldi	r24, 0x01	; 1
 444:	90 e0       	ldi	r25, 0x00	; 0
 446:	01 c0       	rjmp	.+2      	; 0x44a <__EEPROM_REGION_LENGTH__+0x4a>
 448:	88 0f       	add	r24, r24
 44a:	6a 95       	dec	r22
 44c:	ea f7       	brpl	.-6      	; 0x448 <__EEPROM_REGION_LENGTH__+0x48>
 44e:	80 95       	com	r24
 450:	82 23       	and	r24, r18
 452:	c9 cf       	rjmp	.-110    	; 0x3e6 <mDIO_ChangeDirectionForPin+0x56>
 454:	21 b3       	in	r18, 0x11	; 17
 456:	81 e0       	ldi	r24, 0x01	; 1
 458:	90 e0       	ldi	r25, 0x00	; 0
 45a:	01 c0       	rjmp	.+2      	; 0x45e <__EEPROM_REGION_LENGTH__+0x5e>
 45c:	88 0f       	add	r24, r24
 45e:	6a 95       	dec	r22
 460:	ea f7       	brpl	.-6      	; 0x45c <__EEPROM_REGION_LENGTH__+0x5c>
 462:	80 95       	com	r24
 464:	82 23       	and	r24, r18
 466:	c9 cf       	rjmp	.-110    	; 0x3fa <mDIO_ChangeDirectionForPin+0x6a>

00000468 <mDIO_WriteValueForPin>:
 468:	68 30       	cpi	r22, 0x08	; 8
 46a:	a0 f5       	brcc	.+104    	; 0x4d4 <mDIO_WriteValueForPin+0x6c>
 46c:	41 30       	cpi	r20, 0x01	; 1
 46e:	99 f5       	brne	.+102    	; 0x4d6 <mDIO_WriteValueForPin+0x6e>
 470:	82 30       	cpi	r24, 0x02	; 2
 472:	99 f0       	breq	.+38     	; 0x49a <mDIO_WriteValueForPin+0x32>
 474:	18 f4       	brcc	.+6      	; 0x47c <mDIO_WriteValueForPin+0x14>
 476:	81 30       	cpi	r24, 0x01	; 1
 478:	31 f0       	breq	.+12     	; 0x486 <mDIO_WriteValueForPin+0x1e>
 47a:	08 95       	ret
 47c:	83 30       	cpi	r24, 0x03	; 3
 47e:	b9 f0       	breq	.+46     	; 0x4ae <mDIO_WriteValueForPin+0x46>
 480:	84 30       	cpi	r24, 0x04	; 4
 482:	f9 f0       	breq	.+62     	; 0x4c2 <mDIO_WriteValueForPin+0x5a>
 484:	08 95       	ret
 486:	8b b3       	in	r24, 0x1b	; 27
 488:	21 e0       	ldi	r18, 0x01	; 1
 48a:	30 e0       	ldi	r19, 0x00	; 0
 48c:	01 c0       	rjmp	.+2      	; 0x490 <mDIO_WriteValueForPin+0x28>
 48e:	22 0f       	add	r18, r18
 490:	6a 95       	dec	r22
 492:	ea f7       	brpl	.-6      	; 0x48e <mDIO_WriteValueForPin+0x26>
 494:	82 2b       	or	r24, r18
 496:	8b bb       	out	0x1b, r24	; 27
 498:	08 95       	ret
 49a:	88 b3       	in	r24, 0x18	; 24
 49c:	21 e0       	ldi	r18, 0x01	; 1
 49e:	30 e0       	ldi	r19, 0x00	; 0
 4a0:	01 c0       	rjmp	.+2      	; 0x4a4 <mDIO_WriteValueForPin+0x3c>
 4a2:	22 0f       	add	r18, r18
 4a4:	6a 95       	dec	r22
 4a6:	ea f7       	brpl	.-6      	; 0x4a2 <mDIO_WriteValueForPin+0x3a>
 4a8:	82 2b       	or	r24, r18
 4aa:	88 bb       	out	0x18, r24	; 24
 4ac:	08 95       	ret
 4ae:	85 b3       	in	r24, 0x15	; 21
 4b0:	21 e0       	ldi	r18, 0x01	; 1
 4b2:	30 e0       	ldi	r19, 0x00	; 0
 4b4:	01 c0       	rjmp	.+2      	; 0x4b8 <mDIO_WriteValueForPin+0x50>
 4b6:	22 0f       	add	r18, r18
 4b8:	6a 95       	dec	r22
 4ba:	ea f7       	brpl	.-6      	; 0x4b6 <mDIO_WriteValueForPin+0x4e>
 4bc:	82 2b       	or	r24, r18
 4be:	85 bb       	out	0x15, r24	; 21
 4c0:	08 95       	ret
 4c2:	82 b3       	in	r24, 0x12	; 18
 4c4:	21 e0       	ldi	r18, 0x01	; 1
 4c6:	30 e0       	ldi	r19, 0x00	; 0
 4c8:	01 c0       	rjmp	.+2      	; 0x4cc <mDIO_WriteValueForPin+0x64>
 4ca:	22 0f       	add	r18, r18
 4cc:	6a 95       	dec	r22
 4ce:	ea f7       	brpl	.-6      	; 0x4ca <mDIO_WriteValueForPin+0x62>
 4d0:	82 2b       	or	r24, r18
 4d2:	82 bb       	out	0x12, r24	; 18
 4d4:	08 95       	ret
 4d6:	41 11       	cpse	r20, r1
 4d8:	fd cf       	rjmp	.-6      	; 0x4d4 <mDIO_WriteValueForPin+0x6c>
 4da:	82 30       	cpi	r24, 0x02	; 2
 4dc:	99 f0       	breq	.+38     	; 0x504 <mDIO_WriteValueForPin+0x9c>
 4de:	18 f4       	brcc	.+6      	; 0x4e6 <mDIO_WriteValueForPin+0x7e>
 4e0:	81 30       	cpi	r24, 0x01	; 1
 4e2:	31 f0       	breq	.+12     	; 0x4f0 <mDIO_WriteValueForPin+0x88>
 4e4:	08 95       	ret
 4e6:	83 30       	cpi	r24, 0x03	; 3
 4e8:	b9 f0       	breq	.+46     	; 0x518 <mDIO_WriteValueForPin+0xb0>
 4ea:	84 30       	cpi	r24, 0x04	; 4
 4ec:	f9 f0       	breq	.+62     	; 0x52c <mDIO_WriteValueForPin+0xc4>
 4ee:	08 95       	ret
 4f0:	2b b3       	in	r18, 0x1b	; 27
 4f2:	81 e0       	ldi	r24, 0x01	; 1
 4f4:	90 e0       	ldi	r25, 0x00	; 0
 4f6:	01 c0       	rjmp	.+2      	; 0x4fa <mDIO_WriteValueForPin+0x92>
 4f8:	88 0f       	add	r24, r24
 4fa:	6a 95       	dec	r22
 4fc:	ea f7       	brpl	.-6      	; 0x4f8 <mDIO_WriteValueForPin+0x90>
 4fe:	80 95       	com	r24
 500:	82 23       	and	r24, r18
 502:	c9 cf       	rjmp	.-110    	; 0x496 <mDIO_WriteValueForPin+0x2e>
 504:	28 b3       	in	r18, 0x18	; 24
 506:	81 e0       	ldi	r24, 0x01	; 1
 508:	90 e0       	ldi	r25, 0x00	; 0
 50a:	01 c0       	rjmp	.+2      	; 0x50e <mDIO_WriteValueForPin+0xa6>
 50c:	88 0f       	add	r24, r24
 50e:	6a 95       	dec	r22
 510:	ea f7       	brpl	.-6      	; 0x50c <mDIO_WriteValueForPin+0xa4>
 512:	80 95       	com	r24
 514:	82 23       	and	r24, r18
 516:	c9 cf       	rjmp	.-110    	; 0x4aa <mDIO_WriteValueForPin+0x42>
 518:	25 b3       	in	r18, 0x15	; 21
 51a:	81 e0       	ldi	r24, 0x01	; 1
 51c:	90 e0       	ldi	r25, 0x00	; 0
 51e:	01 c0       	rjmp	.+2      	; 0x522 <mDIO_WriteValueForPin+0xba>
 520:	88 0f       	add	r24, r24
 522:	6a 95       	dec	r22
 524:	ea f7       	brpl	.-6      	; 0x520 <mDIO_WriteValueForPin+0xb8>
 526:	80 95       	com	r24
 528:	82 23       	and	r24, r18
 52a:	c9 cf       	rjmp	.-110    	; 0x4be <mDIO_WriteValueForPin+0x56>
 52c:	22 b3       	in	r18, 0x12	; 18
 52e:	81 e0       	ldi	r24, 0x01	; 1
 530:	90 e0       	ldi	r25, 0x00	; 0
 532:	01 c0       	rjmp	.+2      	; 0x536 <mDIO_WriteValueForPin+0xce>
 534:	88 0f       	add	r24, r24
 536:	6a 95       	dec	r22
 538:	ea f7       	brpl	.-6      	; 0x534 <mDIO_WriteValueForPin+0xcc>
 53a:	80 95       	com	r24
 53c:	82 23       	and	r24, r18
 53e:	c9 cf       	rjmp	.-110    	; 0x4d2 <mDIO_WriteValueForPin+0x6a>

00000540 <mDIO_ReadValueFromPin>:
 540:	68 30       	cpi	r22, 0x08	; 8
 542:	28 f4       	brcc	.+10     	; 0x54e <mDIO_ReadValueFromPin+0xe>
 544:	82 30       	cpi	r24, 0x02	; 2
 546:	a9 f0       	breq	.+42     	; 0x572 <mDIO_ReadValueFromPin+0x32>
 548:	20 f4       	brcc	.+8      	; 0x552 <mDIO_ReadValueFromPin+0x12>
 54a:	81 30       	cpi	r24, 0x01	; 1
 54c:	41 f0       	breq	.+16     	; 0x55e <mDIO_ReadValueFromPin+0x1e>
 54e:	89 2f       	mov	r24, r25
 550:	08 95       	ret
 552:	83 30       	cpi	r24, 0x03	; 3
 554:	81 f0       	breq	.+32     	; 0x576 <mDIO_ReadValueFromPin+0x36>
 556:	84 30       	cpi	r24, 0x04	; 4
 558:	d1 f7       	brne	.-12     	; 0x54e <mDIO_ReadValueFromPin+0xe>
 55a:	80 b3       	in	r24, 0x10	; 16
 55c:	01 c0       	rjmp	.+2      	; 0x560 <mDIO_ReadValueFromPin+0x20>
 55e:	89 b3       	in	r24, 0x19	; 25
 560:	90 e0       	ldi	r25, 0x00	; 0
 562:	02 c0       	rjmp	.+4      	; 0x568 <mDIO_ReadValueFromPin+0x28>
 564:	95 95       	asr	r25
 566:	87 95       	ror	r24
 568:	6a 95       	dec	r22
 56a:	e2 f7       	brpl	.-8      	; 0x564 <mDIO_ReadValueFromPin+0x24>
 56c:	98 2f       	mov	r25, r24
 56e:	91 70       	andi	r25, 0x01	; 1
 570:	ee cf       	rjmp	.-36     	; 0x54e <mDIO_ReadValueFromPin+0xe>
 572:	86 b3       	in	r24, 0x16	; 22
 574:	f5 cf       	rjmp	.-22     	; 0x560 <mDIO_ReadValueFromPin+0x20>
 576:	83 b3       	in	r24, 0x13	; 19
 578:	f3 cf       	rjmp	.-26     	; 0x560 <mDIO_ReadValueFromPin+0x20>

0000057a <mDIO_ChangeDirectionforGroup>:
 57a:	82 30       	cpi	r24, 0x02	; 2
 57c:	59 f0       	breq	.+22     	; 0x594 <mDIO_ChangeDirectionforGroup+0x1a>
 57e:	18 f4       	brcc	.+6      	; 0x586 <mDIO_ChangeDirectionforGroup+0xc>
 580:	81 30       	cpi	r24, 0x01	; 1
 582:	31 f0       	breq	.+12     	; 0x590 <mDIO_ChangeDirectionforGroup+0x16>
 584:	08 95       	ret
 586:	83 30       	cpi	r24, 0x03	; 3
 588:	39 f0       	breq	.+14     	; 0x598 <mDIO_ChangeDirectionforGroup+0x1e>
 58a:	84 30       	cpi	r24, 0x04	; 4
 58c:	39 f0       	breq	.+14     	; 0x59c <mDIO_ChangeDirectionforGroup+0x22>
 58e:	08 95       	ret
 590:	6a bb       	out	0x1a, r22	; 26
 592:	08 95       	ret
 594:	67 bb       	out	0x17, r22	; 23
 596:	08 95       	ret
 598:	64 bb       	out	0x14, r22	; 20
 59a:	08 95       	ret
 59c:	61 bb       	out	0x11, r22	; 17
 59e:	08 95       	ret

000005a0 <mDIO_WriteValueForGroup>:
 5a0:	82 30       	cpi	r24, 0x02	; 2
 5a2:	59 f0       	breq	.+22     	; 0x5ba <mDIO_WriteValueForGroup+0x1a>
 5a4:	18 f4       	brcc	.+6      	; 0x5ac <mDIO_WriteValueForGroup+0xc>
 5a6:	81 30       	cpi	r24, 0x01	; 1
 5a8:	31 f0       	breq	.+12     	; 0x5b6 <mDIO_WriteValueForGroup+0x16>
 5aa:	08 95       	ret
 5ac:	83 30       	cpi	r24, 0x03	; 3
 5ae:	39 f0       	breq	.+14     	; 0x5be <mDIO_WriteValueForGroup+0x1e>
 5b0:	84 30       	cpi	r24, 0x04	; 4
 5b2:	39 f0       	breq	.+14     	; 0x5c2 <mDIO_WriteValueForGroup+0x22>
 5b4:	08 95       	ret
 5b6:	6b bb       	out	0x1b, r22	; 27
 5b8:	08 95       	ret
 5ba:	68 bb       	out	0x18, r22	; 24
 5bc:	08 95       	ret
 5be:	65 bb       	out	0x15, r22	; 21
 5c0:	08 95       	ret
 5c2:	62 bb       	out	0x12, r22	; 18
 5c4:	08 95       	ret

000005c6 <mDIO_ReadValueFromGroup>:
 5c6:	82 30       	cpi	r24, 0x02	; 2
 5c8:	69 f0       	breq	.+26     	; 0x5e4 <mDIO_ReadValueFromGroup+0x1e>
 5ca:	20 f4       	brcc	.+8      	; 0x5d4 <mDIO_ReadValueFromGroup+0xe>
 5cc:	81 30       	cpi	r24, 0x01	; 1
 5ce:	41 f0       	breq	.+16     	; 0x5e0 <mDIO_ReadValueFromGroup+0x1a>
 5d0:	89 2f       	mov	r24, r25
 5d2:	08 95       	ret
 5d4:	83 30       	cpi	r24, 0x03	; 3
 5d6:	41 f0       	breq	.+16     	; 0x5e8 <mDIO_ReadValueFromGroup+0x22>
 5d8:	84 30       	cpi	r24, 0x04	; 4
 5da:	d1 f7       	brne	.-12     	; 0x5d0 <mDIO_ReadValueFromGroup+0xa>
 5dc:	90 b3       	in	r25, 0x10	; 16
 5de:	f8 cf       	rjmp	.-16     	; 0x5d0 <mDIO_ReadValueFromGroup+0xa>
 5e0:	99 b3       	in	r25, 0x19	; 25
 5e2:	f6 cf       	rjmp	.-20     	; 0x5d0 <mDIO_ReadValueFromGroup+0xa>
 5e4:	96 b3       	in	r25, 0x16	; 22
 5e6:	f4 cf       	rjmp	.-24     	; 0x5d0 <mDIO_ReadValueFromGroup+0xa>
 5e8:	93 b3       	in	r25, 0x13	; 19
 5ea:	f2 cf       	rjmp	.-28     	; 0x5d0 <mDIO_ReadValueFromGroup+0xa>

000005ec <main>:
 5ec:	40 e0       	ldi	r20, 0x00	; 0
 5ee:	60 e0       	ldi	r22, 0x00	; 0
 5f0:	82 e0       	ldi	r24, 0x02	; 2
 5f2:	0e 94 c8 01 	call	0x390	; 0x390 <mDIO_ChangeDirectionForPin>
 5f6:	41 e0       	ldi	r20, 0x01	; 1
 5f8:	60 e0       	ldi	r22, 0x00	; 0
 5fa:	82 e0       	ldi	r24, 0x02	; 2
 5fc:	0e 94 34 02 	call	0x468	; 0x468 <mDIO_WriteValueForPin>
 600:	41 e0       	ldi	r20, 0x01	; 1
 602:	60 e0       	ldi	r22, 0x00	; 0
 604:	81 e0       	ldi	r24, 0x01	; 1
 606:	0e 94 c8 01 	call	0x390	; 0x390 <mDIO_ChangeDirectionForPin>
 60a:	41 e0       	ldi	r20, 0x01	; 1
 60c:	65 e0       	ldi	r22, 0x05	; 5
 60e:	81 e0       	ldi	r24, 0x01	; 1
 610:	0e 94 c8 01 	call	0x390	; 0x390 <mDIO_ChangeDirectionForPin>
 614:	0e 94 69 01 	call	0x2d2	; 0x2d2 <mTimer0_InitCTCMode>
 618:	0e 94 c0 01 	call	0x380	; 0x380 <mGIE_Enable>
 61c:	60 e0       	ldi	r22, 0x00	; 0
 61e:	82 e0       	ldi	r24, 0x02	; 2
 620:	0e 94 a0 02 	call	0x540	; 0x540 <mDIO_ReadValueFromPin>
 624:	41 e0       	ldi	r20, 0x01	; 1
 626:	81 11       	cpse	r24, r1
 628:	40 e0       	ldi	r20, 0x00	; 0
 62a:	60 e0       	ldi	r22, 0x00	; 0
 62c:	81 e0       	ldi	r24, 0x01	; 1
 62e:	0e 94 34 02 	call	0x468	; 0x468 <mDIO_WriteValueForPin>
 632:	f4 cf       	rjmp	.-24     	; 0x61c <main+0x30>

00000634 <_exit>:
 634:	f8 94       	cli

00000636 <__stop_program>:
 636:	ff cf       	rjmp	.-2      	; 0x636 <__stop_program>
